target datalayout = "e-m:e-p270:32:32-p271:32:32-p272:64:64-i64:64-i128:128-f80:128-n8:16:32:64-S128"
target triple = "x86_64-pc-linux-gnu"

%struct.sharedObjectsStruct = type { ptr, ptr, ptr, ptr, ptr, ptr, ptr, ptr, [4 x ptr], [4 x ptr], [4 x ptr], [4 x ptr], ptr, ptr, ptr, ptr, ptr, ptr, ptr, ptr, ptr, ptr, ptr, ptr, ptr, ptr, ptr, ptr, ptr, ptr, ptr, ptr, ptr, ptr, ptr, ptr, ptr, ptr, ptr, ptr, ptr, ptr, ptr, ptr, ptr, ptr, ptr, ptr, ptr, ptr, ptr, ptr, ptr, ptr, ptr, ptr, ptr, ptr, ptr, ptr, ptr, ptr, ptr, ptr, ptr, ptr, ptr, ptr, ptr, ptr, ptr, ptr, ptr, ptr, ptr, ptr, ptr, ptr, ptr, ptr, ptr, ptr, ptr, ptr, ptr, ptr, ptr, ptr, [10 x ptr], [10000 x ptr], [32 x ptr], [32 x ptr], [32 x ptr], [32 x ptr], ptr, ptr }
%struct.zlexrangespec = type { ptr, ptr, i32, i32 }

@shared = external global %struct.sharedObjectsStruct, align 8

; Function Attrs: nounwind uwtable
define dso_local void @zslFreeLexRange(ptr noundef %0) #0 {
  %2 = alloca ptr, align 8
  store ptr %0, ptr %2, align 8, !tbaa !45
  %3 = load ptr, ptr %2, align 8, !tbaa !45
  %4 = getelementptr inbounds nuw %struct.zlexrangespec, ptr %3, i32 0, i32 0
  %5 = load ptr, ptr %4, align 8, !tbaa !70
  %6 = load ptr, ptr getelementptr inbounds nuw (%struct.sharedObjectsStruct, ptr @shared, i32 0, i32 94), align 8, !tbaa !89
  %7 = icmp ne ptr %5, %6
  br i1 %7, label %8, label %18

8:                                                ; preds = %1
  %9 = load ptr, ptr %2, align 8, !tbaa !45
  %10 = getelementptr inbounds nuw %struct.zlexrangespec, ptr %9, i32 0, i32 0
  %11 = load ptr, ptr %10, align 8, !tbaa !70
  %12 = load ptr, ptr getelementptr inbounds nuw (%struct.sharedObjectsStruct, ptr @shared, i32 0, i32 95), align 8, !tbaa !87
  %13 = icmp ne ptr %11, %12
  br i1 %13, label %14, label %18

14:                                               ; preds = %8
  %15 = load ptr, ptr %2, align 8, !tbaa !45
  %16 = getelementptr inbounds nuw %struct.zlexrangespec, ptr %15, i32 0, i32 0
  %17 = load ptr, ptr %16, align 8, !tbaa !70
  call void @sdsfree(ptr noundef %17)
  br label %18

18:                                               ; preds = %14, %8, %1
  %19 = load ptr, ptr %2, align 8, !tbaa !45
  %20 = getelementptr inbounds nuw %struct.zlexrangespec, ptr %19, i32 0, i32 1
  %21 = load ptr, ptr %20, align 8, !tbaa !72
  %22 = load ptr, ptr getelementptr inbounds nuw (%struct.sharedObjectsStruct, ptr @shared, i32 0, i32 94), align 8, !tbaa !89
  %23 = icmp ne ptr %21, %22
  br i1 %23, label %24, label %34

24:                                               ; preds = %18
  %25 = load ptr, ptr %2, align 8, !tbaa !45
  %26 = getelementptr inbounds nuw %struct.zlexrangespec, ptr %25, i32 0, i32 1
  %27 = load ptr, ptr %26, align 8, !tbaa !72
  %28 = load ptr, ptr getelementptr inbounds nuw (%struct.sharedObjectsStruct, ptr @shared, i32 0, i32 95), align 8, !tbaa !87
  %29 = icmp ne ptr %27, %28
  br i1 %29, label %30, label %34

30:                                               ; preds = %24
  %31 = load ptr, ptr %2, align 8, !tbaa !45
  %32 = getelementptr inbounds nuw %struct.zlexrangespec, ptr %31, i32 0, i32 1
  %33 = load ptr, ptr %32, align 8, !tbaa !72
  call void @sdsfree(ptr noundef %33)
  br label %34

34:                                               ; preds = %30, %24, %18
  ret void
}

; Function Attrs: nounwind uwtable
define dso_local i32 @zslParseLexRange(ptr noundef %0, ptr noundef %1, ptr noundef %2) #0 {
  %4 = alloca i32, align 4
  %5 = alloca ptr, align 8
  %6 = alloca ptr, align 8
  %7 = alloca ptr, align 8
  store ptr %0, ptr %5, align 8, !tbaa !78
  store ptr %1, ptr %6, align 8, !tbaa !78
  store ptr %2, ptr %7, align 8, !tbaa !45
  %8 = load ptr, ptr %5, align 8, !tbaa !78
  %9 = load i32, ptr %8, align 8
  %10 = lshr i32 %9, 4
  %11 = and i32 %10, 15
  %12 = icmp eq i32 %11, 1
  br i1 %12, label %19, label %13

13:                                               ; preds = %3
  %14 = load ptr, ptr %6, align 8, !tbaa !78
  %15 = load i32, ptr %14, align 8
  %16 = lshr i32 %15, 4
  %17 = and i32 %16, 15
  %18 = icmp eq i32 %17, 1
  br i1 %18, label %19, label %20

19:                                               ; preds = %13, %3
  store i32 -1, ptr %4, align 4
  br label %43

20:                                               ; preds = %13
  %21 = load ptr, ptr %7, align 8, !tbaa !45
  %22 = getelementptr inbounds nuw %struct.zlexrangespec, ptr %21, i32 0, i32 1
  store ptr null, ptr %22, align 8, !tbaa !72
  %23 = load ptr, ptr %7, align 8, !tbaa !45
  %24 = getelementptr inbounds nuw %struct.zlexrangespec, ptr %23, i32 0, i32 0
  store ptr null, ptr %24, align 8, !tbaa !70
  %25 = load ptr, ptr %5, align 8, !tbaa !78
  %26 = load ptr, ptr %7, align 8, !tbaa !45
  %27 = getelementptr inbounds nuw %struct.zlexrangespec, ptr %26, i32 0, i32 0
  %28 = load ptr, ptr %7, align 8, !tbaa !45
  %29 = getelementptr inbounds nuw %struct.zlexrangespec, ptr %28, i32 0, i32 2
  %30 = call i32 @zslParseLexRangeItem(ptr noundef %25, ptr noundef %27, ptr noundef %29)
  %31 = icmp eq i32 %30, -1
  br i1 %31, label %40, label %32

32:                                               ; preds = %20
  %33 = load ptr, ptr %6, align 8, !tbaa !78
  %34 = load ptr, ptr %7, align 8, !tbaa !45
  %35 = getelementptr inbounds nuw %struct.zlexrangespec, ptr %34, i32 0, i32 1
  %36 = load ptr, ptr %7, align 8, !tbaa !45
  %37 = getelementptr inbounds nuw %struct.zlexrangespec, ptr %36, i32 0, i32 3
  %38 = call i32 @zslParseLexRangeItem(ptr noundef %33, ptr noundef %35, ptr noundef %37)
  %39 = icmp eq i32 %38, -1
  br i1 %39, label %40, label %42

40:                                               ; preds = %32, %20
  %41 = load ptr, ptr %7, align 8, !tbaa !45
  call void @zslFreeLexRange(ptr noundef %41)
  store i32 -1, ptr %4, align 4
  br label %43

42:                                               ; preds = %32
  store i32 0, ptr %4, align 4
  br label %43

43:                                               ; preds = %42, %40, %19
  %44 = load i32, ptr %4, align 4
  ret i32 %44
}