; Function Attrs: nounwind uwtable
define dso_local range(i32 -1, 1) i32 @zslParseLexRange(ptr noundef readonly captures(none) %0, ptr noundef readonly captures(none) %1, ptr noundef captures(none) %2) local_unnamed_addr #0 {
  %4 = load i32, ptr %0, align 8
  %5 = and i32 %4, 240
  %6 = icmp eq i32 %5, 16
  br i1 %6, label %zslFreeLexRange.exit, label %7

7:                                                ; preds = %3
  %8 = load i32, ptr %1, align 8
  %9 = and i32 %8, 240
  %10 = icmp eq i32 %9, 16
  br i1 %10, label %zslFreeLexRange.exit, label %11

11:                                               ; preds = %7
  %12 = getelementptr inbounds nuw i8, ptr %2, i64 8
  %13 = getelementptr inbounds nuw i8, ptr %2, i64 16
  tail call void @llvm.memset.p0.i64(ptr noundef nonnull align 8 dereferenceable(16) %2, i8 0, i64 16, i1 false)
  %14 = tail call i32 @zslParseLexRangeItem(ptr noundef nonnull %0, ptr noundef nonnull %2, ptr noundef nonnull %13)
  %15 = icmp eq i32 %14, -1
  br i1 %15, label %20, label %16

16:                                               ; preds = %11
  %17 = getelementptr inbounds nuw i8, ptr %2, i64 20
  %18 = tail call i32 @zslParseLexRangeItem(ptr noundef nonnull %1, ptr noundef nonnull %12, ptr noundef nonnull %17)
  %19 = icmp eq i32 %18, -1
  br i1 %19, label %20, label %zslFreeLexRange.exit

20:                                               ; preds = %16, %11
  %21 = load ptr, ptr %2, align 8, !tbaa !60
  %22 = load ptr, ptr getelementptr inbounds nuw (i8, ptr @shared, i64 81904), align 8, !tbaa !61
  %.not.i = icmp eq ptr %21, %22
  %23 = load ptr, ptr getelementptr inbounds nuw (i8, ptr @shared, i64 81912), align 8
  %.not7.i = icmp eq ptr %21, %23
  %or.cond.i = select i1 %.not.i, i1 true, i1 %.not7.i
  br i1 %or.cond.i, label %25, label %24

24:                                               ; preds = %20
  tail call void @sdsfree(ptr noundef %21) #18
  %.pre.i = load ptr, ptr getelementptr inbounds nuw (i8, ptr @shared, i64 81904), align 8, !tbaa !61
  %.pre11.i = load ptr, ptr getelementptr inbounds nuw (i8, ptr @shared, i64 81912), align 8
  br label %25

25:                                               ; preds = %24, %20
  %26 = phi ptr [ %.pre11.i, %24 ], [ %23, %20 ]
  %27 = phi ptr [ %.pre.i, %24 ], [ %22, %20 ]
  %28 = load ptr, ptr %12, align 8, !tbaa !68
  %.not8.i = icmp eq ptr %28, %27
  %.not9.i = icmp eq ptr %28, %26
  %or.cond10.i = select i1 %.not8.i, i1 true, i1 %.not9.i
  br i1 %or.cond10.i, label %zslFreeLexRange.exit, label %29

29:                                               ; preds = %25
  tail call void @sdsfree(ptr noundef %28) #18
  br label %zslFreeLexRange.exit

zslFreeLexRange.exit:                             ; preds = %29, %25, %16, %3, %7
  %.0 = phi i32 [ -1, %7 ], [ -1, %3 ], [ 0, %16 ], [ -1, %25 ], [ -1, %29 ]
  ret i32 %.0
}